target datalayout = "e-m:e-p270:32:32-p271:32:32-p272:64:64-i64:64-i128:128-f80:128-n8:16:32:64-S128"
target triple = "x86_64-pc-linux-gnu"

%struct.ossl_param_st = type { ptr, i32, ptr, i64, i64 }

@.str.1 = private unnamed_addr constant [10 x i8] c"PKCS12KDF\00", align 1
@.str.2 = private unnamed_addr constant [7 x i8] c"digest\00", align 1
@.str.3 = private unnamed_addr constant [5 x i8] c"pass\00", align 1
@.str.4 = private unnamed_addr constant [5 x i8] c"salt\00", align 1
@.str.5 = private unnamed_addr constant [3 x i8] c"id\00", align 1
@.str.6 = private unnamed_addr constant [5 x i8] c"iter\00", align 1

; Function Attrs: nounwind uwtable
define i32 @PKCS12_key_gen_uni_ex(ptr noundef %0, i32 noundef %1, ptr noundef %2, i32 noundef %3, i32 noundef %4, i32 noundef %5, i32 noundef %6, ptr noundef %7, ptr noundef %8, ptr noundef %9, ptr noundef %10) #0 {
  %12 = alloca i32, align 4
  %13 = alloca ptr, align 8
  %14 = alloca i32, align 4
  %15 = alloca ptr, align 8
  %16 = alloca i32, align 4
  %17 = alloca i32, align 4
  %18 = alloca i32, align 4
  %19 = alloca i32, align 4
  %20 = alloca ptr, align 8
  %21 = alloca ptr, align 8
  %22 = alloca ptr, align 8
  %23 = alloca ptr, align 8
  %24 = alloca i32, align 4
  %25 = alloca ptr, align 8
  %26 = alloca ptr, align 8
  %27 = alloca [6 x %struct.ossl_param_st], align 16
  %28 = alloca ptr, align 8
  %29 = alloca i32, align 4
  %30 = alloca %struct.ossl_param_st, align 8
  %31 = alloca %struct.ossl_param_st, align 8
  %32 = alloca %struct.ossl_param_st, align 8
  %33 = alloca %struct.ossl_param_st, align 8
  %34 = alloca %struct.ossl_param_st, align 8
  %35 = alloca %struct.ossl_param_st, align 8
  %36 = alloca ptr, align 8
  %37 = alloca ptr, align 8
  store ptr %0, ptr %13, align 8, !tbaa !3
  store i32 %1, ptr %14, align 4, !tbaa !8
  store ptr %2, ptr %15, align 8, !tbaa !3
  store i32 %3, ptr %16, align 4, !tbaa !8
  store i32 %4, ptr %17, align 4, !tbaa !8
  store i32 %5, ptr %18, align 4, !tbaa !8
  store i32 %6, ptr %19, align 4, !tbaa !8
  store ptr %7, ptr %20, align 8, !tbaa !3
  store ptr %8, ptr %21, align 8, !tbaa !10
  store ptr %9, ptr %22, align 8, !tbaa !12
  store ptr %10, ptr %23, align 8, !tbaa !3
  call void @llvm.lifetime.start.p0(i64 4, ptr %24) #4
  store i32 0, ptr %24, align 4, !tbaa !8
  call void @llvm.lifetime.start.p0(i64 8, ptr %25) #4
  call void @llvm.lifetime.start.p0(i64 8, ptr %26) #4
  call void @llvm.lifetime.start.p0(i64 240, ptr %27) #4
  call void @llvm.lifetime.start.p0(i64 8, ptr %28) #4
  %38 = getelementptr inbounds [6 x %struct.ossl_param_st], ptr %27, i64 0, i64 0
  store ptr %38, ptr %28, align 8, !tbaa !14
  %39 = load i32, ptr %19, align 4, !tbaa !8
  %40 = icmp sle i32 %39, 0
  br i1 %40, label %41, label %42

41:                                               ; preds = %11
  store i32 0, ptr %12, align 4
  store i32 1, ptr %29, align 4
  br label %93

42:                                               ; preds = %11
  %43 = load ptr, ptr %22, align 8, !tbaa !12
  %44 = load ptr, ptr %23, align 8, !tbaa !3
  %45 = call ptr @EVP_KDF_fetch(ptr noundef %43, ptr noundef @.str.1, ptr noundef %44)
  store ptr %45, ptr %25, align 8, !tbaa !16
  %46 = load ptr, ptr %25, align 8, !tbaa !16
  %47 = icmp eq ptr %46, null
  br i1 %47, label %48, label %49

48:                                               ; preds = %42
  store i32 0, ptr %12, align 4
  store i32 1, ptr %29, align 4
  br label %93

49:                                               ; preds = %42
  %50 = load ptr, ptr %25, align 8, !tbaa !16
  %51 = call ptr @EVP_KDF_CTX_new(ptr noundef %50)
  store ptr %51, ptr %26, align 8, !tbaa !18
  %52 = load ptr, ptr %25, align 8, !tbaa !16
  call void @EVP_KDF_free(ptr noundef %52)
  %53 = load ptr, ptr %26, align 8, !tbaa !18
  %54 = icmp eq ptr %53, null
  br i1 %54, label %55, label %56

55:                                               ; preds = %49
  store i32 0, ptr %12, align 4
  store i32 1, ptr %29, align 4
  br label %93

56:                                               ; preds = %49
  %57 = load ptr, ptr %28, align 8, !tbaa !14
  %58 = getelementptr inbounds nuw %struct.ossl_param_st, ptr %57, i32 1
  store ptr %58, ptr %28, align 8, !tbaa !14
  call void @llvm.lifetime.start.p0(i64 40, ptr %30) #4
  %59 = load ptr, ptr %21, align 8, !tbaa !10
  %60 = call ptr @EVP_MD_get0_name(ptr noundef %59)
  call void @OSSL_PARAM_construct_utf8_string(ptr dead_on_unwind writable sret(%struct.ossl_param_st) align 8 %30, ptr noundef @.str.2, ptr noundef %60, i64 noundef 0)
  call void @llvm.memcpy.p0.p0.i64(ptr align 8 %57, ptr align 8 %30, i64 40, i1 false), !tbaa.struct !20
  call void @llvm.lifetime.end.p0(i64 40, ptr %30) #4
  %61 = load ptr, ptr %28, align 8, !tbaa !14
  %62 = getelementptr inbounds nuw %struct.ossl_param_st, ptr %61, i32 1
  store ptr %62, ptr %28, align 8, !tbaa !14
  call void @llvm.lifetime.start.p0(i64 40, ptr %31) #4
  %63 = load ptr, ptr %13, align 8, !tbaa !3
  %64 = load i32, ptr %14, align 4, !tbaa !8
  %65 = sext i32 %64 to i64
  call void @OSSL_PARAM_construct_octet_string(ptr dead_on_unwind writable sret(%struct.ossl_param_st) align 8 %31, ptr noundef @.str.3, ptr noundef %63, i64 noundef %65)
  call void @llvm.memcpy.p0.p0.i64(ptr align 8 %61, ptr align 8 %31, i64 40, i1 false), !tbaa.struct !20
  call void @llvm.lifetime.end.p0(i64 40, ptr %31) #4
  %66 = load ptr, ptr %28, align 8, !tbaa !14
  %67 = getelementptr inbounds nuw %struct.ossl_param_st, ptr %66, i32 1
  store ptr %67, ptr %28, align 8, !tbaa !14
  call void @llvm.lifetime.start.p0(i64 40, ptr %32) #4
  %68 = load ptr, ptr %15, align 8, !tbaa !3
  %69 = load i32, ptr %16, align 4, !tbaa !8
  %70 = sext i32 %69 to i64
  call void @OSSL_PARAM_construct_octet_string(ptr dead_on_unwind writable sret(%struct.ossl_param_st) align 8 %32, ptr noundef @.str.4, ptr noundef %68, i64 noundef %70)
  call void @llvm.memcpy.p0.p0.i64(ptr align 8 %66, ptr align 8 %32, i64 40, i1 false), !tbaa.struct !20
  call void @llvm.lifetime.end.p0(i64 40, ptr %32) #4
  %71 = load ptr, ptr %28, align 8, !tbaa !14
  %72 = getelementptr inbounds nuw %struct.ossl_param_st, ptr %71, i32 1
  store ptr %72, ptr %28, align 8, !tbaa !14
  call void @llvm.lifetime.start.p0(i64 40, ptr %33) #4
  call void @OSSL_PARAM_construct_int(ptr dead_on_unwind writable sret(%struct.ossl_param_st) align 8 %33, ptr noundef @.str.5, ptr noundef %17)
  call void @llvm.memcpy.p0.p0.i64(ptr align 8 %71, ptr align 8 %33, i64 40, i1 false), !tbaa.struct !20
  call void @llvm.lifetime.end.p0(i64 40, ptr %33) #4
  %73 = load ptr, ptr %28, align 8, !tbaa !14
  %74 = getelementptr inbounds nuw %struct.ossl_param_st, ptr %73, i32 1
  store ptr %74, ptr %28, align 8, !tbaa !14
  call void @llvm.lifetime.start.p0(i64 40, ptr %34) #4
  call void @OSSL_PARAM_construct_int(ptr dead_on_unwind writable sret(%struct.ossl_param_st) align 8 %34, ptr noundef @.str.6, ptr noundef %18)
  call void @llvm.memcpy.p0.p0.i64(ptr align 8 %73, ptr align 8 %34, i64 40, i1 false), !tbaa.struct !20
  call void @llvm.lifetime.end.p0(i64 40, ptr %34) #4
  %75 = load ptr, ptr %28, align 8, !tbaa !14
  call void @llvm.lifetime.start.p0(i64 40, ptr %35) #4
  call void @OSSL_PARAM_construct_end(ptr dead_on_unwind writable sret(%struct.ossl_param_st) align 8 %35)
  call void @llvm.memcpy.p0.p0.i64(ptr align 8 %75, ptr align 8 %35, i64 40, i1 false), !tbaa.struct !20
  call void @llvm.lifetime.end.p0(i64 40, ptr %35) #4
  br label %76

76:                                               ; preds = %56
  call void @llvm.lifetime.start.p0(i64 8, ptr %36) #4
  store ptr null, ptr %36, align 8, !tbaa !24
  call void @llvm.lifetime.end.p0(i64 8, ptr %36) #4
  br label %77

77:                                               ; preds = %76
  br label %78

78:                                               ; preds = %77
  %79 = load ptr, ptr %26, align 8, !tbaa !18
  %80 = load ptr, ptr %20, align 8, !tbaa !3
  %81 = load i32, ptr %19, align 4, !tbaa !8
  %82 = sext i32 %81 to i64
  %83 = getelementptr inbounds [6 x %struct.ossl_param_st], ptr %27, i64 0, i64 0
  %84 = call i32 @EVP_KDF_derive(ptr noundef %79, ptr noundef %80, i64 noundef %82, ptr noundef %83)
  %85 = icmp ne i32 %84, 0
  br i1 %85, label %86, label %90

86:                                               ; preds = %78
  store i32 1, ptr %24, align 4, !tbaa !8
  br label %87

87:                                               ; preds = %86
  call void @llvm.lifetime.start.p0(i64 8, ptr %37) #4
  store ptr null, ptr %37, align 8, !tbaa !24
  call void @llvm.lifetime.end.p0(i64 8, ptr %37) #4
  br label %88

88:                                               ; preds = %87
  br label %89

89:                                               ; preds = %88
  br label %90

90:                                               ; preds = %89, %78
  %91 = load ptr, ptr %26, align 8, !tbaa !18
  call void @EVP_KDF_CTX_free(ptr noundef %91)
  %92 = load i32, ptr %24, align 4, !tbaa !8
  store i32 %92, ptr %12, align 4
  store i32 1, ptr %29, align 4
  br label %93

93:                                               ; preds = %90, %55, %48, %41
  call void @llvm.lifetime.end.p0(i64 8, ptr %28) #4
  call void @llvm.lifetime.end.p0(i64 240, ptr %27) #4
  call void @llvm.lifetime.end.p0(i64 8, ptr %26) #4
  call void @llvm.lifetime.end.p0(i64 8, ptr %25) #4
  call void @llvm.lifetime.end.p0(i64 4, ptr %24) #4
  %94 = load i32, ptr %12, align 4
  ret i32 %94
}