; Function Attrs: nounwind uwtable
define range(i32 0, 2) i32 @PKCS12_key_gen_uni_ex(ptr noundef %0, i32 noundef %1, ptr noundef %2, i32 noundef %3, i32 noundef %4, i32 noundef %5, i32 noundef %6, ptr noundef %7, ptr noundef %8, ptr noundef %9, ptr noundef %10) local_unnamed_addr #0 {
  %12 = alloca i32, align 4
  %13 = alloca i32, align 4
  %14 = alloca [6 x %struct.ossl_param_st], align 16
  %15 = alloca %struct.ossl_param_st, align 8
  %16 = alloca %struct.ossl_param_st, align 8
  %17 = alloca %struct.ossl_param_st, align 8
  %18 = alloca %struct.ossl_param_st, align 8
  %19 = alloca %struct.ossl_param_st, align 8
  store i32 %4, ptr %12, align 4, !tbaa !8
  store i32 %5, ptr %13, align 4, !tbaa !8
  call void @llvm.lifetime.start.p0(i64 240, ptr nonnull %14) #4
  %20 = icmp slt i32 %6, 1
  br i1 %20, label %38, label %21

21:                                               ; preds = %11
  %22 = tail call ptr @EVP_KDF_fetch(ptr noundef %9, ptr noundef nonnull @.str.1, ptr noundef %10) #4
  %23 = icmp eq ptr %22, null
  br i1 %23, label %38, label %24

24:                                               ; preds = %21
  %25 = tail call ptr @EVP_KDF_CTX_new(ptr noundef nonnull %22) #4
  tail call void @EVP_KDF_free(ptr noundef nonnull %22) #4
  %26 = icmp eq ptr %25, null
  br i1 %26, label %38, label %27

27:                                               ; preds = %24
  %28 = getelementptr inbounds nuw i8, ptr %14, i64 40
  %29 = tail call ptr @EVP_MD_get0_name(ptr noundef %8) #4
  call void @OSSL_PARAM_construct_utf8_string(ptr dead_on_unwind nonnull writable sret(%struct.ossl_param_st) align 8 %14, ptr noundef nonnull @.str.2, ptr noundef %29, i64 noundef 0) #4
  %30 = getelementptr inbounds nuw i8, ptr %14, i64 80
  call void @llvm.lifetime.start.p0(i64 40, ptr nonnull %15) #4
  %31 = sext i32 %1 to i64
  call void @OSSL_PARAM_construct_octet_string(ptr dead_on_unwind nonnull writable sret(%struct.ossl_param_st) align 8 %15, ptr noundef nonnull @.str.3, ptr noundef %0, i64 noundef %31) #4
  call void @llvm.memcpy.p0.p0.i64(ptr noundef nonnull align 8 dereferenceable(40) %28, ptr noundef nonnull align 8 dereferenceable(40) %15, i64 40, i1 false), !tbaa.struct !10
  call void @llvm.lifetime.end.p0(i64 40, ptr nonnull %15) #4
  %32 = getelementptr inbounds nuw i8, ptr %14, i64 120
  call void @llvm.lifetime.start.p0(i64 40, ptr nonnull %16) #4
  %33 = sext i32 %3 to i64
  call void @OSSL_PARAM_construct_octet_string(ptr dead_on_unwind nonnull writable sret(%struct.ossl_param_st) align 8 %16, ptr noundef nonnull @.str.4, ptr noundef %2, i64 noundef %33) #4
  call void @llvm.memcpy.p0.p0.i64(ptr noundef nonnull align 16 dereferenceable(40) %30, ptr noundef nonnull align 8 dereferenceable(40) %16, i64 40, i1 false), !tbaa.struct !10
  call void @llvm.lifetime.end.p0(i64 40, ptr nonnull %16) #4
  %34 = getelementptr inbounds nuw i8, ptr %14, i64 160
  call void @llvm.lifetime.start.p0(i64 40, ptr nonnull %17) #4
  call void @OSSL_PARAM_construct_int(ptr dead_on_unwind nonnull writable sret(%struct.ossl_param_st) align 8 %17, ptr noundef nonnull @.str.5, ptr noundef nonnull %12) #4
  call void @llvm.memcpy.p0.p0.i64(ptr noundef nonnull align 8 dereferenceable(40) %32, ptr noundef nonnull align 8 dereferenceable(40) %17, i64 40, i1 false), !tbaa.struct !10
  call void @llvm.lifetime.end.p0(i64 40, ptr nonnull %17) #4
  %35 = getelementptr inbounds nuw i8, ptr %14, i64 200
  call void @llvm.lifetime.start.p0(i64 40, ptr nonnull %18) #4
  call void @OSSL_PARAM_construct_int(ptr dead_on_unwind nonnull writable sret(%struct.ossl_param_st) align 8 %18, ptr noundef nonnull @.str.6, ptr noundef nonnull %13) #4
  call void @llvm.memcpy.p0.p0.i64(ptr noundef nonnull align 16 dereferenceable(40) %34, ptr noundef nonnull align 8 dereferenceable(40) %18, i64 40, i1 false), !tbaa.struct !10
  call void @llvm.lifetime.end.p0(i64 40, ptr nonnull %18) #4
  call void @llvm.lifetime.start.p0(i64 40, ptr nonnull %19) #4
  call void @OSSL_PARAM_construct_end(ptr dead_on_unwind nonnull writable sret(%struct.ossl_param_st) align 8 %19) #4
  call void @llvm.memcpy.p0.p0.i64(ptr noundef nonnull align 8 dereferenceable(40) %35, ptr noundef nonnull align 8 dereferenceable(40) %19, i64 40, i1 false), !tbaa.struct !10
  call void @llvm.lifetime.end.p0(i64 40, ptr nonnull %19) #4
  %36 = zext nneg i32 %6 to i64
  %37 = call i32 @EVP_KDF_derive(ptr noundef nonnull %25, ptr noundef %7, i64 noundef %36, ptr noundef nonnull %14) #4
  %.not = icmp ne i32 %37, 0
  %spec.select = zext i1 %.not to i32
  call void @EVP_KDF_CTX_free(ptr noundef nonnull %25) #4
  br label %38

38:                                               ; preds = %24, %21, %11, %27
  %.0 = phi i32 [ %spec.select, %27 ], [ 0, %11 ], [ 0, %21 ], [ 0, %24 ]
  call void @llvm.lifetime.end.p0(i64 240, ptr nonnull %14) #4
  ret i32 %.0
}